; Function Attrs: mustprogress nofree norecurse nosync nounwind willreturn memory(argmem: readwrite) uwtable
define internal void @callReplyNull(ptr noundef captures(none) initializes((16, 36)) %0, ptr noundef %1, i64 noundef %2) #5 {
  %4 = getelementptr inbounds nuw i8, ptr %0, i64 32
  store i32 4, ptr %4, align 8, !tbaa !15
  %5 = getelementptr inbounds nuw i8, ptr %0, i64 16
  store ptr %1, ptr %5, align 8, !tbaa !25
  %6 = getelementptr inbounds nuw i8, ptr %0, i64 24
  store i64 %2, ptr %6, align 8, !tbaa !34
  %7 = getelementptr inbounds nuw i8, ptr %0, i64 36
  %8 = load i32, ptr %7, align 4, !tbaa !5
  %9 = or i32 %8, 4
  store i32 %9, ptr %7, align 4, !tbaa !5
  ret void
}